; Function Attrs: null_pointer_is_valid sspstrong uwtable
define internal fastcc void @dissect_tlv_returned_pdu(ptr noundef %0, ptr noundef %1, i32 noundef %2, ptr noundef %3, i32 noundef range(i32 0, 2147483644) %4) unnamed_addr #0 {
  %6 = icmp samesign ult i32 %4, 10
  br i1 %6, label %7, label %9

7:                                                ; preds = %5
  %8 = tail call ptr (ptr, ptr, ptr, ptr, i32, i32, ptr, ...) @proto_tree_add_expert_format(ptr noundef %3, ptr noundef %1, ptr noundef nonnull @ei_ldp_tlv_fec_len, ptr noundef %0, i32 noundef %2, i32 noundef %4, ptr noundef nonnull @.str.1044, i32 noundef %4)
  br label %28

9:                                                ; preds = %5
  %10 = load i32, ptr @ett_ldp_tlv_val, align 4
  %11 = tail call ptr @proto_tree_add_subtree(ptr noundef %3, ptr noundef %0, i32 noundef %2, i32 noundef %4, i32 noundef %10, ptr noundef null, ptr noundef nonnull @.str.696)
  %12 = load i32, ptr @hf_ldp_tlv_returned_version, align 4
  %13 = tail call ptr @proto_tree_add_item(ptr noundef %11, i32 noundef %12, ptr noundef %0, i32 noundef %2, i32 noundef 2, i32 noundef 0)
  %14 = load i32, ptr @hf_ldp_tlv_returned_pdu_len, align 4
  %15 = add i32 %2, 2
  %16 = tail call ptr @proto_tree_add_item(ptr noundef %11, i32 noundef %14, ptr noundef %0, i32 noundef %15, i32 noundef 2, i32 noundef 0)
  %17 = load i32, ptr @hf_ldp_tlv_returned_lsr, align 4
  %18 = add i32 %2, 4
  %19 = tail call ptr @proto_tree_add_item(ptr noundef %11, i32 noundef %17, ptr noundef %0, i32 noundef %18, i32 noundef 4, i32 noundef 0)
  %20 = load i32, ptr @hf_ldp_tlv_returned_ls_id, align 4
  %21 = add i32 %2, 8
  %22 = tail call ptr @proto_tree_add_item(ptr noundef %11, i32 noundef %20, ptr noundef %0, i32 noundef %21, i32 noundef 2, i32 noundef 0)
  %.not = icmp eq i32 %4, 10
  br i1 %.not, label %28, label %23

23:                                               ; preds = %9
  %24 = add nsw i32 %4, -10
  %25 = add i32 %2, 10
  %26 = load i32, ptr @hf_ldp_returned_pdu_data, align 4
  %27 = tail call ptr @proto_tree_add_item(ptr noundef %11, i32 noundef %26, ptr noundef %0, i32 noundef %25, i32 noundef %24, i32 noundef 0)
  br label %28

28:                                               ; preds = %9, %23, %7
  ret void
}